target datalayout = "e-m:e-p270:32:32-p271:32:32-p272:64:64-i64:64-i128:128-f80:128-n8:16:32:64-S128"
target triple = "x86_64-pc-linux-gnu"

%struct.SpGistCache = type { %struct.spgConfigOut, %struct.SpGistTypeDesc, %struct.SpGistTypeDesc, %struct.SpGistTypeDesc, %struct.SpGistTypeDesc, %struct.SpGistLUPCache }
%struct.spgConfigOut = type { i32, i32, i32, i8, i8 }
%struct.SpGistTypeDesc = type { i32, i16, i8, i8, i8 }
%struct.SpGistLUPCache = type { [8 x %struct.SpGistLastUsedPage] }
%struct.SpGistLastUsedPage = type { i32, i32 }
%struct.PageHeaderData = type { %struct.PageXLogRecPtr, i16, i16, i16, i16, i16, i16, i32, [0 x %struct.ItemIdData] }
%struct.PageXLogRecPtr = type { i32, i32 }
%struct.ItemIdData = type { i32 }
%struct.SpGistPageOpaqueData = type { i16, i16, i16, i16 }

@LocalBufferBlockPointers = external global ptr, align 8
@BufferBlocks = external global ptr, align 8

; Function Attrs: inlinehint nounwind uwtable
define internal ptr @BufferGetBlock(i32 noundef %0) #2 {
  %2 = alloca ptr, align 8
  %3 = alloca i32, align 4
  store i32 %0, ptr %3, align 4
  %4 = load i32, ptr %3, align 4
  %5 = icmp slt i32 %4, 0
  br i1 %5, label %6, label %14

6:                                                ; preds = %1
  %7 = load ptr, ptr @LocalBufferBlockPointers, align 8
  %8 = load i32, ptr %3, align 4
  %9 = sub i32 0, %8
  %10 = sub i32 %9, 1
  %11 = sext i32 %10 to i64
  %12 = getelementptr inbounds ptr, ptr %7, i64 %11
  %13 = load ptr, ptr %12, align 8
  store ptr %13, ptr %2, align 8
  br label %21

14:                                               ; preds = %1
  %15 = load ptr, ptr @BufferBlocks, align 8
  %16 = load i32, ptr %3, align 4
  %17 = sub i32 %16, 1
  %18 = sext i32 %17 to i64
  %19 = mul i64 %18, 8192
  %20 = getelementptr inbounds nuw i8, ptr %15, i64 %19
  store ptr %20, ptr %2, align 8
  br label %21

21:                                               ; preds = %14, %6
  %22 = load ptr, ptr %2, align 8
  ret ptr %22
}

; Function Attrs: inlinehint nounwind uwtable
define internal void @PageValidateSpecialPointer(ptr noundef %0) #2 {
  %2 = alloca ptr, align 8
  store ptr %0, ptr %2, align 8
  ret void
}

; Function Attrs: inlinehint nounwind uwtable
define internal ptr @BufferGetPage(i32 noundef %0) #2 {
  %2 = alloca i32, align 4
  store i32 %0, ptr %2, align 4
  %3 = load i32, ptr %2, align 4
  %4 = call ptr @BufferGetBlock(i32 noundef %3)
  ret ptr %4
}

; Function Attrs: nounwind uwtable
define dso_local void @SpGistSetLastUsedPage(ptr noundef %0, i32 noundef %1) #0 {
  %3 = alloca ptr, align 8
  %4 = alloca i32, align 4
  %5 = alloca ptr, align 8
  %6 = alloca ptr, align 8
  %7 = alloca i32, align 4
  %8 = alloca ptr, align 8
  %9 = alloca i32, align 4
  %10 = alloca i32, align 4
  %11 = alloca i32, align 4
  store ptr %0, ptr %3, align 8
  store i32 %1, ptr %4, align 4
  call void @llvm.lifetime.start.p0(i64 8, ptr %5) #7
  %12 = load ptr, ptr %3, align 8
  %13 = call ptr @spgGetCache(ptr noundef %12)
  store ptr %13, ptr %5, align 8
  call void @llvm.lifetime.start.p0(i64 8, ptr %6) #7
  call void @llvm.lifetime.start.p0(i64 4, ptr %7) #7
  call void @llvm.lifetime.start.p0(i64 8, ptr %8) #7
  %14 = load i32, ptr %4, align 4
  %15 = call ptr @BufferGetPage(i32 noundef %14)
  store ptr %15, ptr %8, align 8
  call void @llvm.lifetime.start.p0(i64 4, ptr %9) #7
  %16 = load i32, ptr %4, align 4
  %17 = call i32 @BufferGetBlockNumber(i32 noundef %16)
  store i32 %17, ptr %9, align 4
  call void @llvm.lifetime.start.p0(i64 4, ptr %10) #7
  %18 = load i32, ptr %9, align 4
  %19 = icmp ule i32 %18, 2
  br i1 %19, label %20, label %21

20:                                               ; preds = %2
  store i32 1, ptr %11, align 4
  br label %91

21:                                               ; preds = %2
  %22 = load ptr, ptr %8, align 8
  call void @PageValidateSpecialPointer(ptr noundef %22)
  %23 = load ptr, ptr %8, align 8
  %24 = load ptr, ptr %8, align 8
  %25 = getelementptr inbounds nuw %struct.PageHeaderData, ptr %24, i32 0, i32 5
  %26 = load i16, ptr %25, align 4
  %27 = zext i16 %26 to i32
  %28 = sext i32 %27 to i64
  %29 = getelementptr inbounds i8, ptr %23, i64 %28
  %30 = getelementptr inbounds nuw %struct.SpGistPageOpaqueData, ptr %29, i32 0, i32 0
  %31 = load i16, ptr %30, align 2
  %32 = zext i16 %31 to i32
  %33 = and i32 %32, 4
  %34 = icmp ne i32 %33, 0
  br i1 %34, label %35, label %36

35:                                               ; preds = %21
  store i32 3, ptr %10, align 4
  br label %39

36:                                               ; preds = %21
  %37 = load i32, ptr %9, align 4
  %38 = urem i32 %37, 3
  store i32 %38, ptr %10, align 4
  br label %39

39:                                               ; preds = %36, %35
  %40 = load ptr, ptr %8, align 8
  call void @PageValidateSpecialPointer(ptr noundef %40)
  %41 = load ptr, ptr %8, align 8
  %42 = load ptr, ptr %8, align 8
  %43 = getelementptr inbounds nuw %struct.PageHeaderData, ptr %42, i32 0, i32 5
  %44 = load i16, ptr %43, align 4
  %45 = zext i16 %44 to i32
  %46 = sext i32 %45 to i64
  %47 = getelementptr inbounds i8, ptr %41, i64 %46
  %48 = getelementptr inbounds nuw %struct.SpGistPageOpaqueData, ptr %47, i32 0, i32 0
  %49 = load i16, ptr %48, align 2
  %50 = zext i16 %49 to i32
  %51 = and i32 %50, 8
  %52 = icmp ne i32 %51, 0
  br i1 %52, label %53, label %56

53:                                               ; preds = %39
  %54 = load i32, ptr %10, align 4
  %55 = or i32 %54, 4
  store i32 %55, ptr %10, align 4
  br label %56

56:                                               ; preds = %53, %39
  %57 = load ptr, ptr %5, align 8
  %58 = getelementptr inbounds nuw %struct.SpGistCache, ptr %57, i32 0, i32 5
  %59 = getelementptr inbounds nuw %struct.SpGistLUPCache, ptr %58, i32 0, i32 0
  %60 = load i32, ptr %10, align 4
  %61 = urem i32 %60, 8
  %62 = zext i32 %61 to i64
  %63 = getelementptr inbounds nuw [8 x %struct.SpGistLastUsedPage], ptr %59, i64 0, i64 %62
  store ptr %63, ptr %6, align 8
  %64 = load ptr, ptr %8, align 8
  %65 = call i64 @PageGetExactFreeSpace(ptr noundef %64)
  %66 = trunc i64 %65 to i32
  store i32 %66, ptr %7, align 4
  %67 = load ptr, ptr %6, align 8
  %68 = getelementptr inbounds nuw %struct.SpGistLastUsedPage, ptr %67, i32 0, i32 0
  %69 = load i32, ptr %68, align 4
  %70 = icmp eq i32 %69, -1
  br i1 %70, label %83, label %71

71:                                               ; preds = %56
  %72 = load ptr, ptr %6, align 8
  %73 = getelementptr inbounds nuw %struct.SpGistLastUsedPage, ptr %72, i32 0, i32 0
  %74 = load i32, ptr %73, align 4
  %75 = load i32, ptr %9, align 4
  %76 = icmp eq i32 %74, %75
  br i1 %76, label %83, label %77

77:                                               ; preds = %71
  %78 = load ptr, ptr %6, align 8
  %79 = getelementptr inbounds nuw %struct.SpGistLastUsedPage, ptr %78, i32 0, i32 1
  %80 = load i32, ptr %79, align 4
  %81 = load i32, ptr %7, align 4
  %82 = icmp slt i32 %80, %81
  br i1 %82, label %83, label %90

83:                                               ; preds = %77, %71, %56
  %84 = load i32, ptr %9, align 4
  %85 = load ptr, ptr %6, align 8
  %86 = getelementptr inbounds nuw %struct.SpGistLastUsedPage, ptr %85, i32 0, i32 0
  store i32 %84, ptr %86, align 4
  %87 = load i32, ptr %7, align 4
  %88 = load ptr, ptr %6, align 8
  %89 = getelementptr inbounds nuw %struct.SpGistLastUsedPage, ptr %88, i32 0, i32 1
  store i32 %87, ptr %89, align 4
  br label %90

90:                                               ; preds = %83, %77
  store i32 0, ptr %11, align 4
  br label %91

91:                                               ; preds = %90, %20
  call void @llvm.lifetime.end.p0(i64 4, ptr %10) #7
  call void @llvm.lifetime.end.p0(i64 4, ptr %9) #7
  call void @llvm.lifetime.end.p0(i64 8, ptr %8) #7
  call void @llvm.lifetime.end.p0(i64 4, ptr %7) #7
  call void @llvm.lifetime.end.p0(i64 8, ptr %6) #7
  call void @llvm.lifetime.end.p0(i64 8, ptr %5) #7
  %92 = load i32, ptr %11, align 4
  switch i32 %92, label %94 [
    i32 0, label %93
    i32 1, label %93
  ]

93:                                               ; preds = %91, %91
  ret void

94:                                               ; preds = %91
  unreachable
}