; Function Attrs: nounwind uwtable
define dso_local void @SpGistSetLastUsedPage(ptr noundef %0, i32 noundef %1) local_unnamed_addr #0 {
  %3 = tail call ptr @spgGetCache(ptr noundef %0)
  %4 = icmp slt i32 %1, 0
  br i1 %4, label %5, label %11

5:                                                ; preds = %2
  %6 = load ptr, ptr @LocalBufferBlockPointers, align 8
  %7 = xor i32 %1, -1
  %8 = zext nneg i32 %7 to i64
  %9 = getelementptr inbounds nuw ptr, ptr %6, i64 %8
  %10 = load ptr, ptr %9, align 8
  br label %BufferGetPage.exit

11:                                               ; preds = %2
  %12 = load ptr, ptr @BufferBlocks, align 8
  %13 = add nsw i32 %1, -1
  %14 = sext i32 %13 to i64
  %15 = shl nsw i64 %14, 13
  %16 = getelementptr inbounds nuw i8, ptr %12, i64 %15
  br label %BufferGetPage.exit

BufferGetPage.exit:                               ; preds = %5, %11
  %.0.i.i = phi ptr [ %10, %5 ], [ %16, %11 ]
  %17 = tail call i32 @BufferGetBlockNumber(i32 noundef %1) #10
  %18 = icmp ult i32 %17, 3
  br i1 %18, label %44, label %19

19:                                               ; preds = %BufferGetPage.exit
  %20 = getelementptr inbounds nuw i8, ptr %.0.i.i, i64 16
  %21 = load i16, ptr %20, align 4
  %22 = zext i16 %21 to i64
  %23 = getelementptr inbounds nuw i8, ptr %.0.i.i, i64 %22
  %24 = load i16, ptr %23, align 2
  %25 = and i16 %24, 4
  %.not = icmp eq i16 %25, 0
  %26 = urem i32 %17, 3
  %.0 = select i1 %.not, i32 %26, i32 3
  %27 = lshr i16 %24, 1
  %28 = and i16 %27, 4
  %29 = zext nneg i16 %28 to i32
  %.1 = or disjoint i32 %.0, %29
  %30 = getelementptr inbounds nuw i8, ptr %3, i64 64
  %31 = zext nneg i32 %.1 to i64
  %32 = getelementptr inbounds nuw [8 x %struct.SpGistLastUsedPage], ptr %30, i64 0, i64 %31
  %33 = tail call i64 @PageGetExactFreeSpace(ptr noundef %.0.i.i) #10
  %34 = trunc i64 %33 to i32
  %35 = load i32, ptr %32, align 4
  %36 = icmp eq i32 %35, -1
  %37 = icmp eq i32 %35, %17
  %or.cond = or i1 %36, %37
  br i1 %or.cond, label %42, label %38

38:                                               ; preds = %19
  %39 = getelementptr inbounds nuw i8, ptr %32, i64 4
  %40 = load i32, ptr %39, align 4
  %41 = icmp slt i32 %40, %34
  br i1 %41, label %42, label %44

42:                                               ; preds = %38, %19
  store i32 %17, ptr %32, align 4
  %43 = getelementptr inbounds nuw i8, ptr %32, i64 4
  store i32 %34, ptr %43, align 4
  br label %44

44:                                               ; preds = %38, %42, %BufferGetPage.exit
  ret void
}